target datalayout = "e-m:e-p270:32:32-p271:32:32-p272:64:64-i64:64-i128:128-f80:128-n8:16:32:64-S128"
target triple = "x86_64-pc-linux-gnu"

%"struct.toml::v3::source_position" = type { i32, i32 }
%"struct.toml::v3::source_region" = type { %"struct.toml::v3::source_position", %"struct.toml::v3::source_position", %"class.std::shared_ptr" }
%"class.std::shared_ptr" = type { %"class.std::__shared_ptr" }
%"class.std::__shared_ptr" = type { ptr, %"class.std::__shared_count" }
%"class.std::__shared_count" = type { ptr }
%"class.toml::v3::node" = type { ptr, %"struct.toml::v3::source_region" }
%"class.toml::v3::array" = type { %"class.toml::v3::node", %"class.std::vector.3" }
%"class.std::vector.3" = type { %"struct.std::_Vector_base.4" }
%"struct.std::_Vector_base.4" = type { %"struct.std::_Vector_base<std::unique_ptr<toml::v3::node>, std::allocator<std::unique_ptr<toml::v3::node>>>::_Vector_impl" }
%"struct.std::_Vector_base<std::unique_ptr<toml::v3::node>, std::allocator<std::unique_ptr<toml::v3::node>>>::_Vector_impl" = type { %"struct.std::_Vector_base<std::unique_ptr<toml::v3::node>, std::allocator<std::unique_ptr<toml::v3::node>>>::_Vector_impl_data" }
%"struct.std::_Vector_base<std::unique_ptr<toml::v3::node>, std::allocator<std::unique_ptr<toml::v3::node>>>::_Vector_impl_data" = type { ptr, ptr, ptr }
%"class.std::unique_ptr" = type { %"struct.std::__uniq_ptr_data" }
%"struct.std::__uniq_ptr_data" = type { %"class.std::__uniq_ptr_impl" }
%"class.std::__uniq_ptr_impl" = type { %"class.std::tuple" }
%"class.std::tuple" = type { %"struct.std::_Tuple_impl" }
%"struct.std::_Tuple_impl" = type { %"struct.std::_Head_base.34" }
%"struct.std::_Head_base.34" = type { ptr }

; Function Attrs: mustprogress nounwind uwtable
define linkonce_odr noundef nonnull align 8 dereferenceable(8) ptr @_ZNSt10_Head_baseILm0EPN4toml2v34nodeELb0EE7_M_headERKS4_(ptr noundef nonnull align 8 dereferenceable(8) %0) #2 comdat align 2 {
  %2 = alloca ptr, align 8
  store ptr %0, ptr %2, align 8, !tbaa !516
  %3 = load ptr, ptr %2, align 8, !tbaa !516
  %4 = getelementptr inbounds nuw %"struct.std::_Head_base.34", ptr %3, i32 0, i32 0
  ret ptr %4
}

; Function Attrs: mustprogress nounwind uwtable
define linkonce_odr noundef nonnull align 8 dereferenceable(8) ptr @_ZNSt11_Tuple_implILm0EJPN4toml2v34nodeESt14default_deleteIS2_EEE7_M_headERKS6_(ptr noundef nonnull align 8 dereferenceable(8) %0) #2 comdat align 2 {
  %2 = alloca ptr, align 8
  store ptr %0, ptr %2, align 8, !tbaa !514
  %3 = load ptr, ptr %2, align 8, !tbaa !514
  %4 = call noundef nonnull align 8 dereferenceable(8) ptr @_ZNSt10_Head_baseILm0EPN4toml2v34nodeELb0EE7_M_headERKS4_(ptr noundef nonnull align 8 dereferenceable(8) %3) #36
  ret ptr %4
}

; Function Attrs: mustprogress nounwind uwtable
define linkonce_odr noundef nonnull align 8 dereferenceable(8) ptr @_ZSt12__get_helperILm0EPN4toml2v34nodeEJSt14default_deleteIS2_EEERKT0_RKSt11_Tuple_implIXT_EJS6_DpT1_EE(ptr noundef nonnull align 8 dereferenceable(8) %0) #2 comdat {
  %2 = alloca ptr, align 8
  store ptr %0, ptr %2, align 8, !tbaa !514
  %3 = load ptr, ptr %2, align 8, !tbaa !514
  %4 = call noundef nonnull align 8 dereferenceable(8) ptr @_ZNSt11_Tuple_implILm0EJPN4toml2v34nodeESt14default_deleteIS2_EEE7_M_headERKS6_(ptr noundef nonnull align 8 dereferenceable(8) %3) #36
  ret ptr %4
}

; Function Attrs: mustprogress nounwind uwtable
define linkonce_odr noundef nonnull align 8 dereferenceable(8) ptr @_ZSt3getILm0EJPN4toml2v34nodeESt14default_deleteIS2_EEERKNSt13tuple_elementIXT_ESt5tupleIJDpT0_EEE4typeERKSA_(ptr noundef nonnull align 8 dereferenceable(8) %0) #2 comdat {
  %2 = alloca ptr, align 8
  store ptr %0, ptr %2, align 8, !tbaa !512
  %3 = load ptr, ptr %2, align 8, !tbaa !512
  %4 = call noundef nonnull align 8 dereferenceable(8) ptr @_ZSt12__get_helperILm0EPN4toml2v34nodeEJSt14default_deleteIS2_EEERKT0_RKSt11_Tuple_implIXT_EJS6_DpT1_EE(ptr noundef nonnull align 8 dereferenceable(8) %3) #36
  ret ptr %4
}

; Function Attrs: mustprogress nounwind uwtable
define linkonce_odr noundef ptr @_ZNKSt15__uniq_ptr_implIN4toml2v34nodeESt14default_deleteIS2_EE6_M_ptrEv(ptr noundef nonnull align 8 dereferenceable(8) %0) #2 comdat align 2 {
  %2 = alloca ptr, align 8
  store ptr %0, ptr %2, align 8, !tbaa !508
  %3 = load ptr, ptr %2, align 8
  %4 = getelementptr inbounds nuw %"class.std::__uniq_ptr_impl", ptr %3, i32 0, i32 0
  %5 = call noundef nonnull align 8 dereferenceable(8) ptr @_ZSt3getILm0EJPN4toml2v34nodeESt14default_deleteIS2_EEERKNSt13tuple_elementIXT_ESt5tupleIJDpT0_EEE4typeERKSA_(ptr noundef nonnull align 8 dereferenceable(8) %4) #36
  %6 = load ptr, ptr %5, align 8, !tbaa !116
  ret ptr %6
}

; Function Attrs: mustprogress nounwind uwtable
define linkonce_odr noundef ptr @_ZNKSt10unique_ptrIN4toml2v34nodeESt14default_deleteIS2_EE3getEv(ptr noundef nonnull align 8 dereferenceable(8) %0) #2 comdat align 2 {
  %2 = alloca ptr, align 8
  store ptr %0, ptr %2, align 8, !tbaa !212
  %3 = load ptr, ptr %2, align 8
  %4 = getelementptr inbounds nuw %"class.std::unique_ptr", ptr %3, i32 0, i32 0
  %5 = call noundef ptr @_ZNKSt15__uniq_ptr_implIN4toml2v34nodeESt14default_deleteIS2_EE6_M_ptrEv(ptr noundef nonnull align 8 dereferenceable(8) %4) #36
  ret ptr %5
}

; Function Attrs: mustprogress nounwind uwtable
define linkonce_odr noundef ptr @_ZNKSt10unique_ptrIN4toml2v34nodeESt14default_deleteIS2_EEptEv(ptr noundef nonnull align 8 dereferenceable(8) %0) #2 comdat align 2 {
  %2 = alloca ptr, align 8
  store ptr %0, ptr %2, align 8, !tbaa !212
  %3 = load ptr, ptr %2, align 8
  %4 = call noundef ptr @_ZNKSt10unique_ptrIN4toml2v34nodeESt14default_deleteIS2_EE3getEv(ptr noundef nonnull align 8 dereferenceable(8) %3) #36
  ret ptr %4
}

; Function Attrs: mustprogress nounwind uwtable
define linkonce_odr noundef nonnull align 8 dereferenceable(8) ptr @_ZNKSt6vectorISt10unique_ptrIN4toml2v34nodeESt14default_deleteIS3_EESaIS6_EEixEm(ptr noundef nonnull align 8 dereferenceable(24) %0, i64 noundef %1) #2 comdat align 2 {
  %3 = alloca ptr, align 8
  %4 = alloca i64, align 8
  store ptr %0, ptr %3, align 8, !tbaa !202
  store i64 %1, ptr %4, align 8, !tbaa !10
  %5 = load ptr, ptr %3, align 8
  %6 = getelementptr inbounds nuw %"struct.std::_Vector_base.4", ptr %5, i32 0, i32 0
  %7 = getelementptr inbounds nuw %"struct.std::_Vector_base<std::unique_ptr<toml::v3::node>, std::allocator<std::unique_ptr<toml::v3::node>>>::_Vector_impl_data", ptr %6, i32 0, i32 0
  %8 = load ptr, ptr %7, align 8, !tbaa !204
  %9 = load i64, ptr %4, align 8, !tbaa !10
  %10 = getelementptr inbounds nuw %"class.std::unique_ptr", ptr %8, i64 %9
  ret ptr %10
}

; Function Attrs: mustprogress nounwind uwtable
define linkonce_odr noundef i64 @_ZNKSt6vectorISt10unique_ptrIN4toml2v34nodeESt14default_deleteIS3_EESaIS6_EE4sizeEv(ptr noundef nonnull align 8 dereferenceable(24) %0) #2 comdat align 2 {
  %2 = alloca ptr, align 8
  store ptr %0, ptr %2, align 8, !tbaa !202
  %3 = load ptr, ptr %2, align 8
  %4 = getelementptr inbounds nuw %"struct.std::_Vector_base.4", ptr %3, i32 0, i32 0
  %5 = getelementptr inbounds nuw %"struct.std::_Vector_base<std::unique_ptr<toml::v3::node>, std::allocator<std::unique_ptr<toml::v3::node>>>::_Vector_impl_data", ptr %4, i32 0, i32 1
  %6 = load ptr, ptr %5, align 8, !tbaa !207
  %7 = getelementptr inbounds nuw %"struct.std::_Vector_base.4", ptr %3, i32 0, i32 0
  %8 = getelementptr inbounds nuw %"struct.std::_Vector_base<std::unique_ptr<toml::v3::node>, std::allocator<std::unique_ptr<toml::v3::node>>>::_Vector_impl_data", ptr %7, i32 0, i32 0
  %9 = load ptr, ptr %8, align 8, !tbaa !204
  %10 = ptrtoint ptr %6 to i64
  %11 = ptrtoint ptr %9 to i64
  %12 = sub i64 %10, %11
  %13 = sdiv exact i64 %12, 8
  ret i64 %13
}

; Function Attrs: mustprogress nounwind uwtable
define noundef i64 @_ZNK4toml2v35array16total_leaf_countEv(ptr noundef nonnull align 8 dereferenceable(64) %0) #2 align 2 {
  %2 = alloca ptr, align 8
  %3 = alloca i64, align 8
  %4 = alloca i64, align 8
  %5 = alloca i64, align 8
  %6 = alloca ptr, align 8
  store ptr %0, ptr %2, align 8, !tbaa !112
  %7 = load ptr, ptr %2, align 8
  call void @llvm.lifetime.start.p0(i64 8, ptr %3) #36
  store i64 0, ptr %3, align 8, !tbaa !10
  call void @llvm.lifetime.start.p0(i64 8, ptr %4) #36
  store i64 0, ptr %4, align 8, !tbaa !10
  call void @llvm.lifetime.start.p0(i64 8, ptr %5) #36
  %8 = getelementptr inbounds nuw %"class.toml::v3::array", ptr %7, i32 0, i32 1
  %9 = call noundef i64 @_ZNKSt6vectorISt10unique_ptrIN4toml2v34nodeESt14default_deleteIS3_EESaIS6_EE4sizeEv(ptr noundef nonnull align 8 dereferenceable(24) %8) #36
  store i64 %9, ptr %5, align 8, !tbaa !10
  br label %10

10:                                               ; preds = %34, %1
  %11 = load i64, ptr %4, align 8, !tbaa !10
  %12 = load i64, ptr %5, align 8, !tbaa !10
  %13 = icmp ult i64 %11, %12
  br i1 %13, label %15, label %14

14:                                               ; preds = %10
  call void @llvm.lifetime.end.p0(i64 8, ptr %5) #36
  call void @llvm.lifetime.end.p0(i64 8, ptr %4) #36
  br label %37

15:                                               ; preds = %10
  call void @llvm.lifetime.start.p0(i64 8, ptr %6) #36
  %16 = getelementptr inbounds nuw %"class.toml::v3::array", ptr %7, i32 0, i32 1
  %17 = load i64, ptr %4, align 8, !tbaa !10
  %18 = call noundef nonnull align 8 dereferenceable(8) ptr @_ZNKSt6vectorISt10unique_ptrIN4toml2v34nodeESt14default_deleteIS3_EESaIS6_EEixEm(ptr noundef nonnull align 8 dereferenceable(24) %16, i64 noundef %17) #36
  %19 = call noundef ptr @_ZNKSt10unique_ptrIN4toml2v34nodeESt14default_deleteIS2_EEptEv(ptr noundef nonnull align 8 dereferenceable(8) %18) #36
  %20 = load ptr, ptr %19, align 8, !tbaa !73
  %21 = getelementptr inbounds ptr, ptr %20, i64 19
  %22 = load ptr, ptr %21, align 8
  %23 = call noundef ptr %22(ptr noundef nonnull align 8 dereferenceable(40) %19) #37
  store ptr %23, ptr %6, align 8, !tbaa !112
  %24 = load ptr, ptr %6, align 8, !tbaa !112
  %25 = icmp ne ptr %24, null
  br i1 %25, label %26, label %29

26:                                               ; preds = %15
  %27 = load ptr, ptr %6, align 8, !tbaa !112
  %28 = call noundef i64 @_ZNK4toml2v35array16total_leaf_countEv(ptr noundef nonnull align 8 dereferenceable(64) %27) #36
  br label %30

29:                                               ; preds = %15
  br label %30

30:                                               ; preds = %29, %26
  %31 = phi i64 [ %28, %26 ], [ 1, %29 ]
  %32 = load i64, ptr %3, align 8, !tbaa !10
  %33 = add i64 %32, %31
  store i64 %33, ptr %3, align 8, !tbaa !10
  call void @llvm.lifetime.end.p0(i64 8, ptr %6) #36
  br label %34

34:                                               ; preds = %30
  %35 = load i64, ptr %4, align 8, !tbaa !10
  %36 = add i64 %35, 1
  store i64 %36, ptr %4, align 8, !tbaa !10
  br label %10, !llvm.loop !232

37:                                               ; preds = %14
  %38 = load i64, ptr %3, align 8, !tbaa !10
  call void @llvm.lifetime.end.p0(i64 8, ptr %3) #36
  ret i64 %38
}