; Function Attrs: mustprogress nofree nounwind willreturn memory(read) uwtable
define noundef i64 @_ZNK4toml2v35array16total_leaf_countEv(ptr noundef nonnull readonly align 8 captures(none) dereferenceable(64) %0) local_unnamed_addr #9 align 2 {
  %2 = getelementptr inbounds nuw i8, ptr %0, i64 40
  %3 = getelementptr inbounds nuw i8, ptr %0, i64 48
  %4 = load ptr, ptr %3, align 8, !tbaa !175
  %5 = load ptr, ptr %2, align 8, !tbaa !177
  %.not12 = icmp eq ptr %4, %5
  br i1 %.not12, label %._crit_edge, label %.lr.ph.preheader

.lr.ph.preheader:                                 ; preds = %1
  %6 = ptrtoint ptr %4 to i64
  %7 = ptrtoint ptr %5 to i64
  %8 = sub i64 %6, %7
  %9 = ashr exact i64 %8, 3
  %umax = tail call i64 @llvm.umax.i64(i64 %9, i64 1)
  br label %.lr.ph

._crit_edge:                                      ; preds = %18, %1
  %.0.lcssa = phi i64 [ 0, %1 ], [ %20, %18 ]
  ret i64 %.0.lcssa

.lr.ph:                                           ; preds = %.lr.ph.preheader, %18
  %.011 = phi i64 [ %20, %18 ], [ 0, %.lr.ph.preheader ]
  %.0810 = phi i64 [ %21, %18 ], [ 0, %.lr.ph.preheader ]
  %10 = getelementptr inbounds nuw %"class.std::unique_ptr", ptr %5, i64 %.0810
  %11 = load ptr, ptr %10, align 8, !tbaa !178
  %12 = load ptr, ptr %11, align 8, !tbaa !44
  %13 = getelementptr inbounds nuw i8, ptr %12, i64 152
  %14 = load ptr, ptr %13, align 8
  %15 = tail call noundef ptr %14(ptr noundef nonnull align 8 dereferenceable(40) %11) #52
  %.not = icmp eq ptr %15, null
  br i1 %.not, label %18, label %16

16:                                               ; preds = %.lr.ph
  %17 = tail call noundef i64 @_ZNK4toml2v35array16total_leaf_countEv(ptr noundef nonnull align 8 dereferenceable(64) %15) #50
  br label %18

18:                                               ; preds = %.lr.ph, %16
  %19 = phi i64 [ %17, %16 ], [ 1, %.lr.ph ]
  %20 = add i64 %19, %.011
  %21 = add nuw i64 %.0810, 1
  %exitcond.not = icmp eq i64 %21, %umax
  br i1 %exitcond.not, label %._crit_edge, label %.lr.ph, !llvm.loop !267
}